(lp0
(dp1
Vdomain
p2
V.instagram.com
p3
sVname
p4
Vurlgen
p5
sVvalue
p6
V"{\u005c"103.249.233.33\u005c": 45916\u005c054 \u005c"103.250.145.39\u005c": 45916}:1gklDU:tjpxIT1YeK86g9_LyjQR54yLFr8"
p7
sVpath
p8
V/
p9
sVhttpOnly
p10
I01
sVsecure
p11
I01
sa(dp12
Vdomain
p13
V.instagram.com
p14
sVsecure
p15
I01
sVvalue
p16
VXEFJKwAEAAHQnDTetnlRrO0vpVsb
p17
sVexpiry
p18
F1863142444.176193
sVpath
p19
g9
sVhttpOnly
p20
I00
sVname
p21
Vmid
p22
sa(dp23
Vdomain
p24
V.instagram.com
p25
sVname
p26
Vrur
p27
sVvalue
p28
VFRC
p29
sVpath
p30
g9
sVhttpOnly
p31
I01
sVsecure
p32
I01
sa(dp33
Vdomain
p34
V.instagram.com
p35
sVsecure
p36
I01
sVvalue
p37
V6417
p38
sVexpiry
p39
F1548387255.531224
sVpath
p40
g9
sVhttpOnly
p41
I01
sVname
p42
Vshbid
p43
sa(dp44
Vdomain
p45
V.instagram.com
p46
sVsecure
p47
I01
sVvalue
p48
V8659185192%3Aw4wfRfZrNFiZWD%3A2
p49
sVexpiry
p50
F1579419534.308946
sVpath
p51
g9
sVhttpOnly
p52
I01
sVname
p53
Vsessionid
p54
sa(dp55
Vdomain
p56
V.instagram.com
p57
sVsecure
p58
I01
sVvalue
p59
V1547782455.2554395
p60
sVexpiry
p61
F1548387255.531442
sVpath
p62
g9
sVhttpOnly
p63
I01
sVname
p64
Vshbts
p65
sa(dp66
Vdomain
p67
V.instagram.com
p68
sVsecure
p69
I01
sVvalue
p70
V8659185192
p71
sVexpiry
p72
F1555659536.680638
sVpath
p73
g9
sVhttpOnly
p74
I00
sVname
p75
Vds_user_id
p76
sa(dp77
Vdomain
p78
V.instagram.com
p79
sVsecure
p80
I01
sVvalue
p81
V2F03gtw7d5ALeHPyJ1ErPd3764GDsDQw
p82
sVexpiry
p83
F1579333136.680769
sVpath
p84
g9
sVhttpOnly
p85
I00
sVname
p86
Vcsrftoken
p87
sa(dp88
Vdomain
p89
V.instagram.com
p90
sVsecure
p91
I01
sVvalue
p92
V3
p93
sVexpiry
p94
F1863142444.176352
sVpath
p95
g9
sVhttpOnly
p96
I00
sVname
p97
Vmcd
p98
sa.