(lp0
(dp1
Vdomain
p2
V.instagram.com
p3
sVname
p4
Vurlgen
p5
sVvalue
p6
V"{\u005c"103.249.233.33\u005c": 45916}:1gjxXT:LYTGB7pFWKKjflszhthwJ3U2jL8"
p7
sVpath
p8
V/
p9
sVhttpOnly
p10
I01
sVsecure
p11
I01
sa(dp12
Vdomain
p13
V.instagram.com
p14
sVname
p15
Vrur
p16
sVvalue
p17
VATN
p18
sVpath
p19
g9
sVhttpOnly
p20
I01
sVsecure
p21
I01
sa(dp22
Vdomain
p23
V.instagram.com
p24
sVsecure
p25
I01
sVvalue
p26
V3
p27
sVexpiry
p28
F1863052545.845549
sVpath
p29
g9
sVhttpOnly
p30
I00
sVname
p31
Vmcd
p32
sa(dp33
Vdomain
p34
V.instagram.com
p35
sVsecure
p36
I01
sVvalue
p37
VB7saxKe3FpAwvuaK3nkBqaIxKCwvHA2s
p38
sVexpiry
p39
F1579142175.321577
sVpath
p40
g9
sVhttpOnly
p41
I00
sVname
p42
Vcsrftoken
p43
sa(dp44
Vdomain
p45
V.instagram.com
p46
sVsecure
p47
I01
sVvalue
p48
V10469793135%3AzKBIeFatmg4w2N%3A20
p49
sVexpiry
p50
F1579228557.742234
sVpath
p51
g9
sVhttpOnly
p52
I01
sVname
p53
Vsessionid
p54
sa(dp55
Vdomain
p56
V.instagram.com
p57
sVsecure
p58
I01
sVvalue
p59
V10469793135
p60
sVexpiry
p61
F1555468575.321431
sVpath
p62
g9
sVhttpOnly
p63
I00
sVname
p64
Vds_user_id
p65
sa(dp66
Vdomain
p67
V.instagram.com
p68
sVsecure
p69
I01
sVvalue
p70
VXD_qAQAEAAFb2M4RZCtu1ZXSE0U6
p71
sVexpiry
p72
F1863052545.845415
sVpath
p73
g9
sVhttpOnly
p74
I00
sVname
p75
Vmid
p76
sa.