(lp0
(dp1
Vdomain
p2
V.instagram.com
p3
sVname
p4
Vurlgen
p5
sVvalue
p6
V"{\u005c"103.249.234.137\u005c": 45916}:1gqGJW:GBHbTuGQcBsIIMXaGDDuwINvu4c"
p7
sVpath
p8
V/
p9
sVhttpOnly
p10
I01
sVsecure
p11
I01
sa(dp12
Vdomain
p13
V.instagram.com
p14
sVsecure
p15
I01
sVvalue
p16
V428749794
p17
sVexpiry
p18
F1556970714.235742
sVpath
p19
g9
sVhttpOnly
p20
I00
sVname
p21
Vds_user_id
p22
sa(dp23
Vdomain
p24
V.instagram.com
p25
sVname
p26
Vrur
p27
sVvalue
p28
VPRN
p29
sVpath
p30
g9
sVhttpOnly
p31
I01
sVsecure
p32
I01
sa(dp33
Vdomain
p34
V.instagram.com
p35
sVsecure
p36
I01
sVvalue
p37
V373
p38
sVexpiry
p39
F1549799511.446946
sVpath
p40
g9
sVhttpOnly
p41
I01
sVname
p42
Vshbid
p43
sa(dp44
Vdomain
p45
V.instagram.com
p46
sVsecure
p47
I01
sVvalue
p48
VDLndelVmRdPIxfNnVZ2tPURJ4xw39qpH
p49
sVexpiry
p50
F1580644314.235899
sVpath
p51
g9
sVhttpOnly
p52
I00
sVname
p53
Vcsrftoken
p54
sa(dp55
Vdomain
p56
V.instagram.com
p57
sVsecure
p58
I01
sVvalue
p59
V3
p60
sVexpiry
p61
F1864554699.016423
sVpath
p62
g9
sVhttpOnly
p63
I00
sVname
p64
Vmcd
p65
sa(dp66
Vdomain
p67
V.instagram.com
p68
sVsecure
p69
I01
sVvalue
p70
V428749794%3AQkC0QoRmjAobY1%3A0
p71
sVexpiry
p72
F1580730711.447235
sVpath
p73
g9
sVhttpOnly
p74
I01
sVname
p75
Vsessionid
p76
sa(dp77
Vdomain
p78
V.instagram.com
p79
sVsecure
p80
I01
sVvalue
p81
V1549194711.18693
p82
sVexpiry
p83
F1549799511.447019
sVpath
p84
g9
sVhttpOnly
p85
I01
sVname
p86
Vshbts
p87
sa(dp88
Vdomain
p89
V.instagram.com
p90
sVsecure
p91
I01
sVvalue
p92
VXFbVygAEAAEz84Ms-Y37HHcU6omA
p93
sVexpiry
p94
F1864554699.016273
sVpath
p95
g9
sVhttpOnly
p96
I00
sVname
p97
Vmid
p98
sa.